target datalayout = "e-m:e-p270:32:32-p271:32:32-p272:64:64-i64:64-i128:128-f80:128-n8:16:32:64-S128"
target triple = "x86_64-pc-linux-gnu"

%struct.rgb_struct = type { double, double, double }
%struct.xyz_struct = type { double, double, double }
%struct.lab_struct = type { double, double, double }

@XYZEpsilon = global double 0x3F822354D28F7CD6, align 8
@XYZKappa = global double 0x408C3A5ED097B426, align 8

; Function Attrs: nounwind uwtable
define void @color_rgb_init(ptr dead_on_unwind noalias writable sret(%struct.rgb_struct) align 8 %0, double noundef %1, double noundef %2, double noundef %3) #0 {
  %5 = alloca double, align 8
  %6 = alloca double, align 8
  %7 = alloca double, align 8
  store double %1, ptr %5, align 8, !tbaa !3
  store double %2, ptr %6, align 8, !tbaa !3
  store double %3, ptr %7, align 8, !tbaa !3
  %8 = load double, ptr %5, align 8, !tbaa !3
  %9 = getelementptr inbounds nuw %struct.rgb_struct, ptr %0, i32 0, i32 0
  store double %8, ptr %9, align 8, !tbaa !7
  %10 = load double, ptr %6, align 8, !tbaa !3
  %11 = getelementptr inbounds nuw %struct.rgb_struct, ptr %0, i32 0, i32 1
  store double %10, ptr %11, align 8, !tbaa !9
  %12 = load double, ptr %7, align 8, !tbaa !3
  %13 = getelementptr inbounds nuw %struct.rgb_struct, ptr %0, i32 0, i32 2
  store double %12, ptr %13, align 8, !tbaa !10
  ret void
}

; Function Attrs: nounwind uwtable
define void @XYZ2RGB(ptr dead_on_unwind noalias writable sret(%struct.rgb_struct) align 8 %0, ptr noundef byval(%struct.xyz_struct) align 8 %1) #0 {
  %3 = alloca double, align 8
  %4 = alloca double, align 8
  %5 = alloca double, align 8
  %6 = alloca double, align 8
  %7 = alloca double, align 8
  %8 = alloca double, align 8
  call void @llvm.lifetime.start.p0(i64 8, ptr %3) #11
  %9 = getelementptr inbounds nuw %struct.xyz_struct, ptr %1, i32 0, i32 0
  %10 = load double, ptr %9, align 8, !tbaa !11
  %11 = fdiv double %10, 1.000000e+02
  store double %11, ptr %3, align 8, !tbaa !3
  call void @llvm.lifetime.start.p0(i64 8, ptr %4) #11
  %12 = getelementptr inbounds nuw %struct.xyz_struct, ptr %1, i32 0, i32 1
  %13 = load double, ptr %12, align 8, !tbaa !13
  %14 = fdiv double %13, 1.000000e+02
  store double %14, ptr %4, align 8, !tbaa !3
  call void @llvm.lifetime.start.p0(i64 8, ptr %5) #11
  %15 = getelementptr inbounds nuw %struct.xyz_struct, ptr %1, i32 0, i32 2
  %16 = load double, ptr %15, align 8, !tbaa !14
  %17 = fdiv double %16, 1.000000e+02
  store double %17, ptr %5, align 8, !tbaa !3
  call void @llvm.lifetime.start.p0(i64 8, ptr %6) #11
  %18 = load double, ptr %3, align 8, !tbaa !3
  %19 = load double, ptr %4, align 8, !tbaa !3
  %20 = fmul double %19, -1.537200e+00
  %21 = call double @llvm.fmuladd.f64(double %18, double 3.240600e+00, double %20)
  %22 = load double, ptr %5, align 8, !tbaa !3
  %23 = call double @llvm.fmuladd.f64(double %22, double -4.986000e-01, double %21)
  store double %23, ptr %6, align 8, !tbaa !3
  call void @llvm.lifetime.start.p0(i64 8, ptr %7) #11
  %24 = load double, ptr %3, align 8, !tbaa !3
  %25 = load double, ptr %4, align 8, !tbaa !3
  %26 = fmul double %25, 1.875800e+00
  %27 = call double @llvm.fmuladd.f64(double %24, double 0xBFEF013A92A30553, double %26)
  %28 = load double, ptr %5, align 8, !tbaa !3
  %29 = call double @llvm.fmuladd.f64(double %28, double 4.150000e-02, double %27)
  store double %29, ptr %7, align 8, !tbaa !3
  call void @llvm.lifetime.start.p0(i64 8, ptr %8) #11
  %30 = load double, ptr %3, align 8, !tbaa !3
  %31 = load double, ptr %4, align 8, !tbaa !3
  %32 = fmul double %31, -2.040000e-01
  %33 = call double @llvm.fmuladd.f64(double %30, double 5.570000e-02, double %32)
  %34 = load double, ptr %5, align 8, !tbaa !3
  %35 = call double @llvm.fmuladd.f64(double %34, double 1.057000e+00, double %33)
  store double %35, ptr %8, align 8, !tbaa !3
  %36 = load double, ptr %6, align 8, !tbaa !3
  %37 = fcmp ogt double %36, 3.130800e-03
  br i1 %37, label %38, label %42

38:                                               ; preds = %2
  %39 = load double, ptr %6, align 8, !tbaa !3
  %40 = call double @pow(double noundef %39, double noundef 0x3FDAAAAAAAAAAAAB) #11, !tbaa !19
  %41 = call double @llvm.fmuladd.f64(double 1.055000e+00, double %40, double -5.500000e-02)
  store double %41, ptr %6, align 8, !tbaa !3
  br label %45

42:                                               ; preds = %2
  %43 = load double, ptr %6, align 8, !tbaa !3
  %44 = fmul double 1.292000e+01, %43
  store double %44, ptr %6, align 8, !tbaa !3
  br label %45

45:                                               ; preds = %42, %38
  %46 = load double, ptr %7, align 8, !tbaa !3
  %47 = fcmp ogt double %46, 3.130800e-03
  br i1 %47, label %48, label %52

48:                                               ; preds = %45
  %49 = load double, ptr %7, align 8, !tbaa !3
  %50 = call double @pow(double noundef %49, double noundef 0x3FDAAAAAAAAAAAAB) #11, !tbaa !19
  %51 = call double @llvm.fmuladd.f64(double 1.055000e+00, double %50, double -5.500000e-02)
  store double %51, ptr %7, align 8, !tbaa !3
  br label %55

52:                                               ; preds = %45
  %53 = load double, ptr %7, align 8, !tbaa !3
  %54 = fmul double 1.292000e+01, %53
  store double %54, ptr %7, align 8, !tbaa !3
  br label %55

55:                                               ; preds = %52, %48
  %56 = load double, ptr %8, align 8, !tbaa !3
  %57 = fcmp ogt double %56, 3.130800e-03
  br i1 %57, label %58, label %62

58:                                               ; preds = %55
  %59 = load double, ptr %8, align 8, !tbaa !3
  %60 = call double @pow(double noundef %59, double noundef 0x3FDAAAAAAAAAAAAB) #11, !tbaa !19
  %61 = call double @llvm.fmuladd.f64(double 1.055000e+00, double %60, double -5.500000e-02)
  store double %61, ptr %8, align 8, !tbaa !3
  br label %65

62:                                               ; preds = %55
  %63 = load double, ptr %8, align 8, !tbaa !3
  %64 = fmul double 1.292000e+01, %63
  store double %64, ptr %8, align 8, !tbaa !3
  br label %65

65:                                               ; preds = %62, %58
  %66 = load double, ptr %6, align 8, !tbaa !3
  %67 = fcmp ogt double 0.000000e+00, %66
  br i1 %67, label %68, label %69

68:                                               ; preds = %65
  br label %71

69:                                               ; preds = %65
  %70 = load double, ptr %6, align 8, !tbaa !3
  br label %71

71:                                               ; preds = %69, %68
  %72 = phi double [ 0.000000e+00, %68 ], [ %70, %69 ]
  store double %72, ptr %6, align 8, !tbaa !3
  %73 = load double, ptr %6, align 8, !tbaa !3
  %74 = fmul double %73, 2.550000e+02
  %75 = fcmp olt double 2.550000e+02, %74
  br i1 %75, label %76, label %77

76:                                               ; preds = %71
  br label %80

77:                                               ; preds = %71
  %78 = load double, ptr %6, align 8, !tbaa !3
  %79 = fmul double %78, 2.550000e+02
  br label %80

80:                                               ; preds = %77, %76
  %81 = phi double [ 2.550000e+02, %76 ], [ %79, %77 ]
  store double %81, ptr %6, align 8, !tbaa !3
  %82 = load double, ptr %7, align 8, !tbaa !3
  %83 = fcmp ogt double 0.000000e+00, %82
  br i1 %83, label %84, label %85

84:                                               ; preds = %80
  br label %87

85:                                               ; preds = %80
  %86 = load double, ptr %7, align 8, !tbaa !3
  br label %87

87:                                               ; preds = %85, %84
  %88 = phi double [ 0.000000e+00, %84 ], [ %86, %85 ]
  store double %88, ptr %7, align 8, !tbaa !3
  %89 = load double, ptr %7, align 8, !tbaa !3
  %90 = fmul double %89, 2.550000e+02
  %91 = fcmp olt double 2.550000e+02, %90
  br i1 %91, label %92, label %93

92:                                               ; preds = %87
  br label %96

93:                                               ; preds = %87
  %94 = load double, ptr %7, align 8, !tbaa !3
  %95 = fmul double %94, 2.550000e+02
  br label %96

96:                                               ; preds = %93, %92
  %97 = phi double [ 2.550000e+02, %92 ], [ %95, %93 ]
  store double %97, ptr %7, align 8, !tbaa !3
  %98 = load double, ptr %8, align 8, !tbaa !3
  %99 = fcmp ogt double 0.000000e+00, %98
  br i1 %99, label %100, label %101

100:                                              ; preds = %96
  br label %103

101:                                              ; preds = %96
  %102 = load double, ptr %8, align 8, !tbaa !3
  br label %103

103:                                              ; preds = %101, %100
  %104 = phi double [ 0.000000e+00, %100 ], [ %102, %101 ]
  store double %104, ptr %8, align 8, !tbaa !3
  %105 = load double, ptr %8, align 8, !tbaa !3
  %106 = fmul double %105, 2.550000e+02
  %107 = fcmp olt double 2.550000e+02, %106
  br i1 %107, label %108, label %109

108:                                              ; preds = %103
  br label %112

109:                                              ; preds = %103
  %110 = load double, ptr %8, align 8, !tbaa !3
  %111 = fmul double %110, 2.550000e+02
  br label %112

112:                                              ; preds = %109, %108
  %113 = phi double [ 2.550000e+02, %108 ], [ %111, %109 ]
  store double %113, ptr %8, align 8, !tbaa !3
  %114 = load double, ptr %6, align 8, !tbaa !3
  %115 = load double, ptr %7, align 8, !tbaa !3
  %116 = load double, ptr %8, align 8, !tbaa !3
  call void @color_rgb_init(ptr dead_on_unwind writable sret(%struct.rgb_struct) align 8 %0, double noundef %114, double noundef %115, double noundef %116)
  call void @llvm.lifetime.end.p0(i64 8, ptr %8) #11
  call void @llvm.lifetime.end.p0(i64 8, ptr %7) #11
  call void @llvm.lifetime.end.p0(i64 8, ptr %6) #11
  call void @llvm.lifetime.end.p0(i64 8, ptr %5) #11
  call void @llvm.lifetime.end.p0(i64 8, ptr %4) #11
  call void @llvm.lifetime.end.p0(i64 8, ptr %3) #11
  ret void
}

; Function Attrs: nounwind uwtable
define void @color_xyz_init(ptr dead_on_unwind noalias writable sret(%struct.xyz_struct) align 8 %0, double noundef %1, double noundef %2, double noundef %3) #0 {
  %5 = alloca double, align 8
  %6 = alloca double, align 8
  %7 = alloca double, align 8
  store double %1, ptr %5, align 8, !tbaa !3
  store double %2, ptr %6, align 8, !tbaa !3
  store double %3, ptr %7, align 8, !tbaa !3
  %8 = load double, ptr %5, align 8, !tbaa !3
  %9 = getelementptr inbounds nuw %struct.xyz_struct, ptr %0, i32 0, i32 0
  store double %8, ptr %9, align 8, !tbaa !11
  %10 = load double, ptr %6, align 8, !tbaa !3
  %11 = getelementptr inbounds nuw %struct.xyz_struct, ptr %0, i32 0, i32 1
  store double %10, ptr %11, align 8, !tbaa !13
  %12 = load double, ptr %7, align 8, !tbaa !3
  %13 = getelementptr inbounds nuw %struct.xyz_struct, ptr %0, i32 0, i32 2
  store double %12, ptr %13, align 8, !tbaa !14
  ret void
}

; Function Attrs: nounwind uwtable
define void @LAB2RGB(ptr dead_on_unwind noalias writable sret(%struct.rgb_struct) align 8 %0, ptr noundef byval(%struct.lab_struct) align 8 %1) #0 {
  %3 = alloca double, align 8
  %4 = alloca double, align 8
  %5 = alloca double, align 8
  %6 = alloca %struct.xyz_struct, align 8
  %7 = alloca %struct.xyz_struct, align 8
  %8 = alloca double, align 8
  %9 = alloca double, align 8
  %10 = alloca double, align 8
  %11 = alloca %struct.xyz_struct, align 8
  call void @llvm.lifetime.start.p0(i64 8, ptr %3) #11
  %12 = getelementptr inbounds nuw %struct.lab_struct, ptr %1, i32 0, i32 0
  %13 = load double, ptr %12, align 8, !tbaa !15
  %14 = fadd double %13, 1.600000e+01
  %15 = fdiv double %14, 1.160000e+02
  store double %15, ptr %3, align 8, !tbaa !3
  call void @llvm.lifetime.start.p0(i64 8, ptr %4) #11
  %16 = getelementptr inbounds nuw %struct.lab_struct, ptr %1, i32 0, i32 1
  %17 = load double, ptr %16, align 8, !tbaa !17
  %18 = fdiv double %17, 5.000000e+02
  %19 = load double, ptr %3, align 8, !tbaa !3
  %20 = fadd double %18, %19
  store double %20, ptr %4, align 8, !tbaa !3
  call void @llvm.lifetime.start.p0(i64 8, ptr %5) #11
  %21 = load double, ptr %3, align 8, !tbaa !3
  %22 = getelementptr inbounds nuw %struct.lab_struct, ptr %1, i32 0, i32 2
  %23 = load double, ptr %22, align 8, !tbaa !18
  %24 = fdiv double %23, 2.000000e+02
  %25 = fsub double %21, %24
  store double %25, ptr %5, align 8, !tbaa !3
  call void @llvm.lifetime.start.p0(i64 24, ptr %6) #11
  call void @color_xyz_init(ptr dead_on_unwind writable sret(%struct.xyz_struct) align 8 %6, double noundef 0x4057C3020C49BA5E, double noundef 1.000000e+02, double noundef 1.088830e+02)
  call void @llvm.lifetime.start.p0(i64 24, ptr %7) #11
  call void @llvm.lifetime.start.p0(i64 8, ptr %8) #11
  call void @llvm.lifetime.start.p0(i64 8, ptr %9) #11
  call void @llvm.lifetime.start.p0(i64 8, ptr %10) #11
  %26 = load double, ptr %4, align 8, !tbaa !3
  %27 = call double @pow(double noundef %26, double noundef 3.000000e+00) #11, !tbaa !19
  %28 = load double, ptr @XYZEpsilon, align 8, !tbaa !3
  %29 = fcmp ogt double %27, %28
  br i1 %29, label %30, label %33

30:                                               ; preds = %2
  %31 = load double, ptr %4, align 8, !tbaa !3
  %32 = call double @pow(double noundef %31, double noundef 3.000000e+00) #11, !tbaa !19
  store double %32, ptr %8, align 8, !tbaa !3
  br label %37

33:                                               ; preds = %2
  %34 = load double, ptr %4, align 8, !tbaa !3
  %35 = fsub double %34, 0x3FC1A7B9611A7B96
  %36 = fdiv double %35, 0x401F25E353F7CED9
  store double %36, ptr %8, align 8, !tbaa !3
  br label %37

37:                                               ; preds = %33, %30
  %38 = getelementptr inbounds nuw %struct.lab_struct, ptr %1, i32 0, i32 0
  %39 = load double, ptr %38, align 8, !tbaa !15
  %40 = load double, ptr @XYZKappa, align 8, !tbaa !3
  %41 = load double, ptr @XYZEpsilon, align 8, !tbaa !3
  %42 = fmul double %40, %41
  %43 = fcmp ogt double %39, %42
  br i1 %43, label %44, label %50

44:                                               ; preds = %37
  %45 = getelementptr inbounds nuw %struct.lab_struct, ptr %1, i32 0, i32 0
  %46 = load double, ptr %45, align 8, !tbaa !15
  %47 = fadd double %46, 1.600000e+01
  %48 = fdiv double %47, 1.160000e+02
  %49 = call double @pow(double noundef %48, double noundef 3.000000e+00) #11, !tbaa !19
  store double %49, ptr %9, align 8, !tbaa !3
  br label %55

50:                                               ; preds = %37
  %51 = getelementptr inbounds nuw %struct.lab_struct, ptr %1, i32 0, i32 0
  %52 = load double, ptr %51, align 8, !tbaa !15
  %53 = load double, ptr @XYZKappa, align 8, !tbaa !3
  %54 = fdiv double %52, %53
  store double %54, ptr %9, align 8, !tbaa !3
  br label %55

55:                                               ; preds = %50, %44
  %56 = load double, ptr %5, align 8, !tbaa !3
  %57 = call double @pow(double noundef %56, double noundef 3.000000e+00) #11, !tbaa !19
  %58 = load double, ptr @XYZEpsilon, align 8, !tbaa !3
  %59 = fcmp ogt double %57, %58
  br i1 %59, label %60, label %63

60:                                               ; preds = %55
  %61 = load double, ptr %5, align 8, !tbaa !3
  %62 = call double @pow(double noundef %61, double noundef 3.000000e+00) #11, !tbaa !19
  store double %62, ptr %10, align 8, !tbaa !3
  br label %67

63:                                               ; preds = %55
  %64 = load double, ptr %5, align 8, !tbaa !3
  %65 = fsub double %64, 0x3FC1A7B9611A7B96
  %66 = fdiv double %65, 0x401F25E353F7CED9
  store double %66, ptr %10, align 8, !tbaa !3
  br label %67

67:                                               ; preds = %63, %60
  call void @llvm.lifetime.start.p0(i64 24, ptr %11) #11
  %68 = getelementptr inbounds nuw %struct.xyz_struct, ptr %6, i32 0, i32 0
  %69 = load double, ptr %68, align 8, !tbaa !11
  %70 = load double, ptr %8, align 8, !tbaa !3
  %71 = fmul double %69, %70
  %72 = getelementptr inbounds nuw %struct.xyz_struct, ptr %6, i32 0, i32 1
  %73 = load double, ptr %72, align 8, !tbaa !13
  %74 = load double, ptr %9, align 8, !tbaa !3
  %75 = fmul double %73, %74
  %76 = getelementptr inbounds nuw %struct.xyz_struct, ptr %6, i32 0, i32 2
  %77 = load double, ptr %76, align 8, !tbaa !14
  %78 = load double, ptr %10, align 8, !tbaa !3
  %79 = fmul double %77, %78
  call void @color_xyz_init(ptr dead_on_unwind writable sret(%struct.xyz_struct) align 8 %11, double noundef %71, double noundef %75, double noundef %79)
  call void @llvm.memcpy.p0.p0.i64(ptr align 8 %7, ptr align 8 %11, i64 24, i1 false), !tbaa.struct !24
  call void @llvm.lifetime.end.p0(i64 24, ptr %11) #11
  call void @XYZ2RGB(ptr dead_on_unwind writable sret(%struct.rgb_struct) align 8 %0, ptr noundef byval(%struct.xyz_struct) align 8 %7)
  call void @llvm.lifetime.end.p0(i64 8, ptr %10) #11
  call void @llvm.lifetime.end.p0(i64 8, ptr %9) #11
  call void @llvm.lifetime.end.p0(i64 8, ptr %8) #11
  call void @llvm.lifetime.end.p0(i64 24, ptr %7) #11
  call void @llvm.lifetime.end.p0(i64 24, ptr %6) #11
  call void @llvm.lifetime.end.p0(i64 8, ptr %5) #11
  call void @llvm.lifetime.end.p0(i64 8, ptr %4) #11
  call void @llvm.lifetime.end.p0(i64 8, ptr %3) #11
  ret void
}